; ModuleID = '64/1845.c'
source_filename = "64/1845.c"
target datalayout = "e-m:e-p270:32:32-p271:32:32-p272:64:64-i64:64-f80:128-n8:16:32:64-S128"
target triple = "x86_64-pc-linux-gnu"

@.str = private unnamed_addr constant [3 x i8] c"%d\00", align 1
@.str.1 = private unnamed_addr constant [7 x i8] c"%d%d%d\00", align 1
@.str.2 = private unnamed_addr constant [29 x i8] c"(%d,%d,%d)-(%d,%d,%d)=%.2lf\0A\00", align 1

; Function Attrs: noinline nounwind uwtable
define dso_local i32 @main() #0 {
  %1 = alloca i32, align 4
  %2 = alloca i32, align 4
  %3 = alloca i32, align 4
  %4 = alloca i32, align 4
  %5 = alloca i32, align 4
  %6 = alloca i32, align 4
  %7 = alloca i32, align 4
  %8 = alloca i32, align 4
  %9 = alloca [100 x i32], align 16
  %10 = alloca [100 x i32], align 16
  %11 = alloca [100 x i32], align 16
  %12 = alloca [100 x i32], align 16
  %13 = alloca [100 x i32], align 16
  %14 = alloca double, align 8
  %15 = alloca [100 x double], align 16
  store i32 0, i32* %1, align 4
  store i32 0, i32* %8, align 4
  %16 = call i32 (i8*, ...) @__isoc99_scanf(i8* getelementptr inbounds ([3 x i8], [3 x i8]* @.str, i64 0, i64 0), i32* %4)
  store i32 0, i32* %3, align 4
  br label %17

17:                                               ; preds = %32, %0
  %18 = load i32, i32* %3, align 4
  %19 = load i32, i32* %4, align 4
  %20 = icmp slt i32 %18, %19
  br i1 %20, label %21, label %35

21:                                               ; preds = %17
  %22 = load i32, i32* %3, align 4
  %23 = sext i32 %22 to i64
  %24 = getelementptr inbounds [100 x i32], [100 x i32]* %9, i64 0, i64 %23
  %25 = load i32, i32* %3, align 4
  %26 = sext i32 %25 to i64
  %27 = getelementptr inbounds [100 x i32], [100 x i32]* %10, i64 0, i64 %26
  %28 = load i32, i32* %3, align 4
  %29 = sext i32 %28 to i64
  %30 = getelementptr inbounds [100 x i32], [100 x i32]* %11, i64 0, i64 %29
  %31 = call i32 (i8*, ...) @__isoc99_scanf(i8* getelementptr inbounds ([7 x i8], [7 x i8]* @.str.1, i64 0, i64 0), i32* %24, i32* %27, i32* %30)
  br label %32

32:                                               ; preds = %21
  %33 = load i32, i32* %3, align 4
  %34 = add nsw i32 %33, 1
  store i32 %34, i32* %3, align 4
  br label %17

35:                                               ; preds = %17
  store i32 0, i32* %3, align 4
  br label %36

36:                                               ; preds = %127, %35
  %37 = load i32, i32* %3, align 4
  %38 = load i32, i32* %4, align 4
  %39 = sub nsw i32 %38, 1
  %40 = icmp slt i32 %37, %39
  br i1 %40, label %41, label %130

41:                                               ; preds = %36
  %42 = load i32, i32* %3, align 4
  %43 = add nsw i32 %42, 1
  store i32 %43, i32* %7, align 4
  br label %44

44:                                               ; preds = %123, %41
  %45 = load i32, i32* %7, align 4
  %46 = load i32, i32* %4, align 4
  %47 = icmp slt i32 %45, %46
  br i1 %47, label %48, label %126

48:                                               ; preds = %44
  %49 = load i32, i32* %3, align 4
  %50 = sext i32 %49 to i64
  %51 = getelementptr inbounds [100 x i32], [100 x i32]* %9, i64 0, i64 %50
  %52 = load i32, i32* %51, align 4
  %53 = load i32, i32* %7, align 4
  %54 = sext i32 %53 to i64
  %55 = getelementptr inbounds [100 x i32], [100 x i32]* %9, i64 0, i64 %54
  %56 = load i32, i32* %55, align 4
  %57 = sub nsw i32 %52, %56
  %58 = load i32, i32* %3, align 4
  %59 = sext i32 %58 to i64
  %60 = getelementptr inbounds [100 x i32], [100 x i32]* %9, i64 0, i64 %59
  %61 = load i32, i32* %60, align 4
  %62 = load i32, i32* %7, align 4
  %63 = sext i32 %62 to i64
  %64 = getelementptr inbounds [100 x i32], [100 x i32]* %9, i64 0, i64 %63
  %65 = load i32, i32* %64, align 4
  %66 = sub nsw i32 %61, %65
  %67 = mul nsw i32 %57, %66
  %68 = load i32, i32* %3, align 4
  %69 = sext i32 %68 to i64
  %70 = getelementptr inbounds [100 x i32], [100 x i32]* %10, i64 0, i64 %69
  %71 = load i32, i32* %70, align 4
  %72 = load i32, i32* %7, align 4
  %73 = sext i32 %72 to i64
  %74 = getelementptr inbounds [100 x i32], [100 x i32]* %10, i64 0, i64 %73
  %75 = load i32, i32* %74, align 4
  %76 = sub nsw i32 %71, %75
  %77 = load i32, i32* %3, align 4
  %78 = sext i32 %77 to i64
  %79 = getelementptr inbounds [100 x i32], [100 x i32]* %10, i64 0, i64 %78
  %80 = load i32, i32* %79, align 4
  %81 = load i32, i32* %7, align 4
  %82 = sext i32 %81 to i64
  %83 = getelementptr inbounds [100 x i32], [100 x i32]* %10, i64 0, i64 %82
  %84 = load i32, i32* %83, align 4
  %85 = sub nsw i32 %80, %84
  %86 = mul nsw i32 %76, %85
  %87 = add nsw i32 %67, %86
  %88 = load i32, i32* %3, align 4
  %89 = sext i32 %88 to i64
  %90 = getelementptr inbounds [100 x i32], [100 x i32]* %11, i64 0, i64 %89
  %91 = load i32, i32* %90, align 4
  %92 = load i32, i32* %7, align 4
  %93 = sext i32 %92 to i64
  %94 = getelementptr inbounds [100 x i32], [100 x i32]* %11, i64 0, i64 %93
  %95 = load i32, i32* %94, align 4
  %96 = sub nsw i32 %91, %95
  %97 = load i32, i32* %3, align 4
  %98 = sext i32 %97 to i64
  %99 = getelementptr inbounds [100 x i32], [100 x i32]* %11, i64 0, i64 %98
  %100 = load i32, i32* %99, align 4
  %101 = load i32, i32* %7, align 4
  %102 = sext i32 %101 to i64
  %103 = getelementptr inbounds [100 x i32], [100 x i32]* %11, i64 0, i64 %102
  %104 = load i32, i32* %103, align 4
  %105 = sub nsw i32 %100, %104
  %106 = mul nsw i32 %96, %105
  %107 = add nsw i32 %87, %106
  %108 = sitofp i32 %107 to double
  %109 = call double @sqrt(double %108) #3
  %110 = load i32, i32* %8, align 4
  %111 = sext i32 %110 to i64
  %112 = getelementptr inbounds [100 x double], [100 x double]* %15, i64 0, i64 %111
  store double %109, double* %112, align 8
  %113 = load i32, i32* %3, align 4
  %114 = load i32, i32* %8, align 4
  %115 = sext i32 %114 to i64
  %116 = getelementptr inbounds [100 x i32], [100 x i32]* %12, i64 0, i64 %115
  store i32 %113, i32* %116, align 4
  %117 = load i32, i32* %7, align 4
  %118 = load i32, i32* %8, align 4
  %119 = sext i32 %118 to i64
  %120 = getelementptr inbounds [100 x i32], [100 x i32]* %13, i64 0, i64 %119
  store i32 %117, i32* %120, align 4
  %121 = load i32, i32* %8, align 4
  %122 = add nsw i32 %121, 1
  store i32 %122, i32* %8, align 4
  br label %123

123:                                              ; preds = %48
  %124 = load i32, i32* %7, align 4
  %125 = add nsw i32 %124, 1
  store i32 %125, i32* %7, align 4
  br label %44

126:                                              ; preds = %44
  br label %127

127:                                              ; preds = %126
  %128 = load i32, i32* %3, align 4
  %129 = add nsw i32 %128, 1
  store i32 %129, i32* %3, align 4
  br label %36

130:                                              ; preds = %36
  store i32 1, i32* %2, align 4
  br label %131

131:                                              ; preds = %211, %130
  %132 = load i32, i32* %2, align 4
  %133 = load i32, i32* %8, align 4
  %134 = add nsw i32 %133, 1
  %135 = icmp slt i32 %132, %134
  br i1 %135, label %136, label %214

136:                                              ; preds = %131
  store i32 0, i32* %3, align 4
  br label %137

137:                                              ; preds = %207, %136
  %138 = load i32, i32* %3, align 4
  %139 = load i32, i32* %8, align 4
  %140 = load i32, i32* %2, align 4
  %141 = sub nsw i32 %139, %140
  %142 = icmp slt i32 %138, %141
  br i1 %142, label %143, label %210

143:                                              ; preds = %137
  %144 = load i32, i32* %3, align 4
  %145 = sext i32 %144 to i64
  %146 = getelementptr inbounds [100 x double], [100 x double]* %15, i64 0, i64 %145
  %147 = load double, double* %146, align 8
  %148 = load i32, i32* %3, align 4
  %149 = add nsw i32 %148, 1
  %150 = sext i32 %149 to i64
  %151 = getelementptr inbounds [100 x double], [100 x double]* %15, i64 0, i64 %150
  %152 = load double, double* %151, align 8
  %153 = fcmp olt double %147, %152
  br i1 %153, label %154, label %206

154:                                              ; preds = %143
  %155 = load i32, i32* %3, align 4
  %156 = add nsw i32 %155, 1
  %157 = sext i32 %156 to i64
  %158 = getelementptr inbounds [100 x double], [100 x double]* %15, i64 0, i64 %157
  %159 = load double, double* %158, align 8
  store double %159, double* %14, align 8
  %160 = load i32, i32* %3, align 4
  %161 = add nsw i32 %160, 1
  %162 = sext i32 %161 to i64
  %163 = getelementptr inbounds [100 x i32], [100 x i32]* %12, i64 0, i64 %162
  %164 = load i32, i32* %163, align 4
  store i32 %164, i32* %5, align 4
  %165 = load i32, i32* %3, align 4
  %166 = add nsw i32 %165, 1
  %167 = sext i32 %166 to i64
  %168 = getelementptr inbounds [100 x i32], [100 x i32]* %13, i64 0, i64 %167
  %169 = load i32, i32* %168, align 4
  store i32 %169, i32* %6, align 4
  %170 = load i32, i32* %3, align 4
  %171 = sext i32 %170 to i64
  %172 = getelementptr inbounds [100 x double], [100 x double]* %15, i64 0, i64 %171
  %173 = load double, double* %172, align 8
  %174 = load i32, i32* %3, align 4
  %175 = add nsw i32 %174, 1
  %176 = sext i32 %175 to i64
  %177 = getelementptr inbounds [100 x double], [100 x double]* %15, i64 0, i64 %176
  store double %173, double* %177, align 8
  %178 = load i32, i32* %3, align 4
  %179 = sext i32 %178 to i64
  %180 = getelementptr inbounds [100 x i32], [100 x i32]* %12, i64 0, i64 %179
  %181 = load i32, i32* %180, align 4
  %182 = load i32, i32* %3, align 4
  %183 = add nsw i32 %182, 1
  %184 = sext i32 %183 to i64
  %185 = getelementptr inbounds [100 x i32], [100 x i32]* %12, i64 0, i64 %184
  store i32 %181, i32* %185, align 4
  %186 = load i32, i32* %3, align 4
  %187 = sext i32 %186 to i64
  %188 = getelementptr inbounds [100 x i32], [100 x i32]* %13, i64 0, i64 %187
  %189 = load i32, i32* %188, align 4
  %190 = load i32, i32* %3, align 4
  %191 = add nsw i32 %190, 1
  %192 = sext i32 %191 to i64
  %193 = getelementptr inbounds [100 x i32], [100 x i32]* %13, i64 0, i64 %192
  store i32 %189, i32* %193, align 4
  %194 = load double, double* %14, align 8
  %195 = load i32, i32* %3, align 4
  %196 = sext i32 %195 to i64
  %197 = getelementptr inbounds [100 x double], [100 x double]* %15, i64 0, i64 %196
  store double %194, double* %197, align 8
  %198 = load i32, i32* %5, align 4
  %199 = load i32, i32* %3, align 4
  %200 = sext i32 %199 to i64
  %201 = getelementptr inbounds [100 x i32], [100 x i32]* %12, i64 0, i64 %200
  store i32 %198, i32* %201, align 4
  %202 = load i32, i32* %6, align 4
  %203 = load i32, i32* %3, align 4
  %204 = sext i32 %203 to i64
  %205 = getelementptr inbounds [100 x i32], [100 x i32]* %13, i64 0, i64 %204
  store i32 %202, i32* %205, align 4
  br label %206

206:                                              ; preds = %154, %143
  br label %207

207:                                              ; preds = %206
  %208 = load i32, i32* %3, align 4
  %209 = add nsw i32 %208, 1
  store i32 %209, i32* %3, align 4
  br label %137

210:                                              ; preds = %137
  br label %211

211:                                              ; preds = %210
  %212 = load i32, i32* %2, align 4
  %213 = add nsw i32 %212, 1
  store i32 %213, i32* %2, align 4
  br label %131

214:                                              ; preds = %131
  store i32 0, i32* %3, align 4
  br label %215

215:                                              ; preds = %267, %214
  %216 = load i32, i32* %3, align 4
  %217 = load i32, i32* %8, align 4
  %218 = icmp slt i32 %216, %217
  br i1 %218, label %219, label %270

219:                                              ; preds = %215
  %220 = load i32, i32* %3, align 4
  %221 = sext i32 %220 to i64
  %222 = getelementptr inbounds [100 x i32], [100 x i32]* %12, i64 0, i64 %221
  %223 = load i32, i32* %222, align 4
  %224 = sext i32 %223 to i64
  %225 = getelementptr inbounds [100 x i32], [100 x i32]* %9, i64 0, i64 %224
  %226 = load i32, i32* %225, align 4
  %227 = load i32, i32* %3, align 4
  %228 = sext i32 %227 to i64
  %229 = getelementptr inbounds [100 x i32], [100 x i32]* %12, i64 0, i64 %228
  %230 = load i32, i32* %229, align 4
  %231 = sext i32 %230 to i64
  %232 = getelementptr inbounds [100 x i32], [100 x i32]* %10, i64 0, i64 %231
  %233 = load i32, i32* %232, align 4
  %234 = load i32, i32* %3, align 4
  %235 = sext i32 %234 to i64
  %236 = getelementptr inbounds [100 x i32], [100 x i32]* %12, i64 0, i64 %235
  %237 = load i32, i32* %236, align 4
  %238 = sext i32 %237 to i64
  %239 = getelementptr inbounds [100 x i32], [100 x i32]* %11, i64 0, i64 %238
  %240 = load i32, i32* %239, align 4
  %241 = load i32, i32* %3, align 4
  %242 = sext i32 %241 to i64
  %243 = getelementptr inbounds [100 x i32], [100 x i32]* %13, i64 0, i64 %242
  %244 = load i32, i32* %243, align 4
  %245 = sext i32 %244 to i64
  %246 = getelementptr inbounds [100 x i32], [100 x i32]* %9, i64 0, i64 %245
  %247 = load i32, i32* %246, align 4
  %248 = load i32, i32* %3, align 4
  %249 = sext i32 %248 to i64
  %250 = getelementptr inbounds [100 x i32], [100 x i32]* %13, i64 0, i64 %249
  %251 = load i32, i32* %250, align 4
  %252 = sext i32 %251 to i64
  %253 = getelementptr inbounds [100 x i32], [100 x i32]* %10, i64 0, i64 %252
  %254 = load i32, i32* %253, align 4
  %255 = load i32, i32* %3, align 4
  %256 = sext i32 %255 to i64
  %257 = getelementptr inbounds [100 x i32], [100 x i32]* %13, i64 0, i64 %256
  %258 = load i32, i32* %257, align 4
  %259 = sext i32 %258 to i64
  %260 = getelementptr inbounds [100 x i32], [100 x i32]* %11, i64 0, i64 %259
  %261 = load i32, i32* %260, align 4
  %262 = load i32, i32* %3, align 4
  %263 = sext i32 %262 to i64
  %264 = getelementptr inbounds [100 x double], [100 x double]* %15, i64 0, i64 %263
  %265 = load double, double* %264, align 8
  %266 = call i32 (i8*, ...) @printf(i8* getelementptr inbounds ([29 x i8], [29 x i8]* @.str.2, i64 0, i64 0), i32 %226, i32 %233, i32 %240, i32 %247, i32 %254, i32 %261, double %265)
  br label %267

267:                                              ; preds = %219
  %268 = load i32, i32* %3, align 4
  %269 = add nsw i32 %268, 1
  store i32 %269, i32* %3, align 4
  br label %215

270:                                              ; preds = %215
  ret i32 0
}

declare dso_local i32 @__isoc99_scanf(i8*, ...) #1

; Function Attrs: nounwind
declare dso_local double @sqrt(double) #2

declare dso_local i32 @printf(i8*, ...) #1


!llvm.module.flags = !{!0}
!llvm.ident = !{!1}

!0 = !{i32 1, !"wchar_size", i32 4}
!1 = !{!"clang version 10.0.0-4ubuntu1 "}
